; ModuleID = '29/1722.c'
source_filename = "29/1722.c"
target datalayout = "e-m:e-p270:32:32-p271:32:32-p272:64:64-i64:64-f80:128-n8:16:32:64-S128"
target triple = "x86_64-pc-linux-gnu"

@.str = private unnamed_addr constant [3 x i8] c"%d\00", align 1
@.str.1 = private unnamed_addr constant [6 x i8] c"%.3f\0A\00", align 1

; Function Attrs: noinline nounwind uwtable
define dso_local i32 @main() #0 {
  %1 = alloca i32, align 4
  %2 = alloca i32, align 4
  %3 = alloca i32, align 4
  %4 = alloca i32, align 4
  %5 = alloca float, align 4
  %6 = alloca float, align 4
  %7 = alloca float, align 4
  %8 = alloca float, align 4
  %9 = alloca i32, align 4
  %10 = alloca float, align 4
  store i32 0, i32* %1, align 4
  %11 = call i32 (i8*, ...) @__isoc99_scanf(i8* getelementptr inbounds ([3 x i8], [3 x i8]* @.str, i64 0, i64 0), i32* %2)
  store i32 1, i32* %3, align 4
  br label %12

12:                                               ; preds = %42, %0
  %13 = load i32, i32* %3, align 4
  %14 = load i32, i32* %2, align 4
  %15 = icmp sle i32 %13, %14
  br i1 %15, label %16, label %45

16:                                               ; preds = %12
  store float 0.000000e+00, float* %5, align 4
  %17 = call i32 (i8*, ...) @__isoc99_scanf(i8* getelementptr inbounds ([3 x i8], [3 x i8]* @.str, i64 0, i64 0), i32* %4)
  store float 2.000000e+00, float* %6, align 4
  store float 1.000000e+00, float* %7, align 4
  store i32 1, i32* %9, align 4
  br label %18

18:                                               ; preds = %38, %16
  %19 = load float, float* %6, align 4
  %20 = load float, float* %7, align 4
  %21 = fdiv float %19, %20
  store float %21, float* %10, align 4
  %22 = load float, float* %5, align 4
  %23 = load float, float* %10, align 4
  %24 = fadd float %22, %23
  store float %24, float* %5, align 4
  %25 = load i32, i32* %9, align 4
  %26 = load i32, i32* %4, align 4
  %27 = icmp eq i32 %25, %26
  br i1 %27, label %28, label %32

28:                                               ; preds = %18
  %29 = load float, float* %5, align 4
  %30 = fpext float %29 to double
  %31 = call i32 (i8*, ...) @printf(i8* getelementptr inbounds ([6 x i8], [6 x i8]* @.str.1, i64 0, i64 0), double %30)
  br label %41

32:                                               ; preds = %18
  %33 = load float, float* %6, align 4
  store float %33, float* %8, align 4
  %34 = load float, float* %6, align 4
  %35 = load float, float* %7, align 4
  %36 = fadd float %34, %35
  store float %36, float* %6, align 4
  %37 = load float, float* %8, align 4
  store float %37, float* %7, align 4
  br label %38

38:                                               ; preds = %32
  %39 = load i32, i32* %9, align 4
  %40 = add nsw i32 %39, 1
  store i32 %40, i32* %9, align 4
  br label %18

41:                                               ; preds = %28
  br label %42

42:                                               ; preds = %41
  %43 = load i32, i32* %3, align 4
  %44 = add nsw i32 %43, 1
  store i32 %44, i32* %3, align 4
  br label %12

45:                                               ; preds = %12
  %46 = load i32, i32* %1, align 4
  ret i32 %46
}

declare dso_local i32 @__isoc99_scanf(i8*, ...) #1

declare dso_local i32 @printf(i8*, ...) #1


!llvm.module.flags = !{!0}
!llvm.ident = !{!1}

!0 = !{i32 1, !"wchar_size", i32 4}
!1 = !{!"clang version 10.0.0-4ubuntu1 "}
